target datalayout = "e-m:e-p270:32:32-p271:32:32-p272:64:64-i64:64-i128:128-f80:128-n8:16:32:64-S128"
target triple = "x86_64-pc-linux-gnu"

@H5_libinit_g = external global i8, align 1
@H5_libterm_g = external global i8, align 1
@.str = private unnamed_addr constant [97 x i8] c"generated/home/dtcxzyw/WorkSpace/Projects/compilers/llvm-opt-benchmark/bench/hdf5/hdf5/src/H5P.c\00", align 1
@H5E_FUNC_g = external global i64, align 8
@H5E_CANTINIT_g = external global i64, align 8
@.str.1 = private unnamed_addr constant [30 x i8] c"library initialization failed\00", align 1
@H5E_CANTSET_g = external global i64, align 8
@.str.2 = private unnamed_addr constant [22 x i8] c"can't set API context\00", align 1
@H5E_ARGS_g = external global i64, align 8
@H5E_BADTYPE_g = external global i64, align 8
@H5E_PLIST_g = external global i64, align 8
@H5E_CANTREGISTER_g = external global i64, align 8
@H5E_BADVALUE_g = external global i64, align 8
@.str.18 = private unnamed_addr constant [20 x i8] c"not a property list\00", align 1
@.str.23 = private unnamed_addr constant [22 x i8] c"not a property object\00", align 1
@.str.25 = private unnamed_addr constant [21 x i8] c"not a property class\00", align 1
@__func__.H5Pget_nprops = private unnamed_addr constant [14 x i8] c"H5Pget_nprops\00", align 1
@.str.34 = private unnamed_addr constant [32 x i8] c"invalid property nprops pointer\00", align 1
@.str.35 = private unnamed_addr constant [41 x i8] c"unable to query # of properties in plist\00", align 1
@.str.36 = private unnamed_addr constant [42 x i8] c"unable to query # of properties in pclass\00", align 1

; Function Attrs: nounwind uwtable
define i32 @H5Pget_nprops(i64 noundef %0, ptr noundef %1) #0 {
  %3 = alloca i64, align 8
  %4 = alloca ptr, align 8
  %5 = alloca ptr, align 8
  %6 = alloca ptr, align 8
  %7 = alloca i32, align 4
  %8 = alloca i8, align 1
  %9 = alloca i8, align 1
  store i64 %0, ptr %3, align 8
  store ptr %1, ptr %4, align 8
  store i32 0, ptr %7, align 4
  store i8 0, ptr %8, align 1
  store i8 0, ptr %9, align 1
  %10 = load i8, ptr @H5_libinit_g, align 1
  %11 = trunc i8 %10 to i1
  br i1 %11, label %16, label %12

12:                                               ; preds = %2
  %13 = load i8, ptr @H5_libterm_g, align 1
  %14 = trunc i8 %13 to i1
  %15 = xor i1 %14, true
  br label %16

16:                                               ; preds = %12, %2
  %17 = phi i1 [ false, %2 ], [ %15, %12 ]
  %18 = xor i1 %17, true
  %19 = xor i1 %18, true
  %20 = zext i1 %19 to i32
  %21 = sext i32 %20 to i64
  %22 = icmp ne i64 %21, 0
  br i1 %22, label %23, label %47

23:                                               ; preds = %16
  %24 = call i32 @H5_init_library()
  %25 = icmp slt i32 %24, 0
  %26 = xor i1 %25, true
  %27 = xor i1 %26, true
  %28 = zext i1 %27 to i32
  %29 = sext i32 %28 to i64
  %30 = icmp ne i64 %29, 0
  br i1 %30, label %31, label %46

31:                                               ; preds = %23
  br label %32

32:                                               ; preds = %31
  br label %33

33:                                               ; preds = %32
  br label %34

34:                                               ; preds = %33
  %35 = load i64, ptr @H5E_FUNC_g, align 8
  %36 = load i64, ptr @H5E_CANTINIT_g, align 8
  %37 = call i32 (ptr, ptr, i32, i64, i64, ptr, ...) @H5E_printf_stack(ptr noundef @.str, ptr noundef @__func__.H5Pget_nprops, i32 noundef 951, i64 noundef %35, i64 noundef %36, ptr noundef @.str.1)
  br label %38

38:                                               ; preds = %34
  store i8 1, ptr %9, align 1
  %39 = load i8, ptr %9, align 1
  %40 = trunc i8 %39 to i1
  %41 = zext i1 %40 to i8
  store i8 %41, ptr %9, align 1
  br label %42

42:                                               ; preds = %38
  br label %43

43:                                               ; preds = %42
  store i32 -1, ptr %7, align 4
  br label %218

44:                                               ; No predecessors!
  br label %45

45:                                               ; preds = %44
  br label %46

46:                                               ; preds = %45, %23
  br label %47

47:                                               ; preds = %46, %16
  %48 = call i32 @H5CX_push()
  %49 = icmp slt i32 %48, 0
  %50 = xor i1 %49, true
  %51 = xor i1 %50, true
  %52 = zext i1 %51 to i32
  %53 = sext i32 %52 to i64
  %54 = icmp ne i64 %53, 0
  br i1 %54, label %55, label %70

55:                                               ; preds = %47
  br label %56

56:                                               ; preds = %55
  br label %57

57:                                               ; preds = %56
  br label %58

58:                                               ; preds = %57
  %59 = load i64, ptr @H5E_FUNC_g, align 8
  %60 = load i64, ptr @H5E_CANTSET_g, align 8
  %61 = call i32 (ptr, ptr, i32, i64, i64, ptr, ...) @H5E_printf_stack(ptr noundef @.str, ptr noundef @__func__.H5Pget_nprops, i32 noundef 951, i64 noundef %59, i64 noundef %60, ptr noundef @.str.2)
  br label %62

62:                                               ; preds = %58
  store i8 1, ptr %9, align 1
  %63 = load i8, ptr %9, align 1
  %64 = trunc i8 %63 to i1
  %65 = zext i1 %64 to i8
  store i8 %65, ptr %9, align 1
  br label %66

66:                                               ; preds = %62
  br label %67

67:                                               ; preds = %66
  store i32 -1, ptr %7, align 4
  br label %218

68:                                               ; No predecessors!
  br label %69

69:                                               ; preds = %68
  br label %71

70:                                               ; preds = %47
  store i8 1, ptr %8, align 1
  br label %71

71:                                               ; preds = %70, %69
  %72 = call i32 @H5E_clear_stack()
  %73 = load i64, ptr %3, align 8
  %74 = call i32 @H5I_get_type(i64 noundef %73)
  %75 = icmp ne i32 11, %74
  br i1 %75, label %76, label %95

76:                                               ; preds = %71
  %77 = load i64, ptr %3, align 8
  %78 = call i32 @H5I_get_type(i64 noundef %77)
  %79 = icmp ne i32 10, %78
  br i1 %79, label %80, label %95

80:                                               ; preds = %76
  br label %81

81:                                               ; preds = %80
  br label %82

82:                                               ; preds = %81
  br label %83

83:                                               ; preds = %82
  %84 = load i64, ptr @H5E_ARGS_g, align 8
  %85 = load i64, ptr @H5E_BADTYPE_g, align 8
  %86 = call i32 (ptr, ptr, i32, i64, i64, ptr, ...) @H5E_printf_stack(ptr noundef @.str, ptr noundef @__func__.H5Pget_nprops, i32 noundef 955, i64 noundef %84, i64 noundef %85, ptr noundef @.str.23)
  br label %87

87:                                               ; preds = %83
  store i8 1, ptr %9, align 1
  %88 = load i8, ptr %9, align 1
  %89 = trunc i8 %88 to i1
  %90 = zext i1 %89 to i8
  store i8 %90, ptr %9, align 1
  br label %91

91:                                               ; preds = %87
  br label %92

92:                                               ; preds = %91
  store i32 -1, ptr %7, align 4
  br label %218

93:                                               ; No predecessors!
  br label %94

94:                                               ; preds = %93
  br label %95

95:                                               ; preds = %94, %76, %71
  %96 = load ptr, ptr %4, align 8
  %97 = icmp eq ptr %96, null
  br i1 %97, label %98, label %113

98:                                               ; preds = %95
  br label %99

99:                                               ; preds = %98
  br label %100

100:                                              ; preds = %99
  br label %101

101:                                              ; preds = %100
  %102 = load i64, ptr @H5E_ARGS_g, align 8
  %103 = load i64, ptr @H5E_BADVALUE_g, align 8
  %104 = call i32 (ptr, ptr, i32, i64, i64, ptr, ...) @H5E_printf_stack(ptr noundef @.str, ptr noundef @__func__.H5Pget_nprops, i32 noundef 957, i64 noundef %102, i64 noundef %103, ptr noundef @.str.34)
  br label %105

105:                                              ; preds = %101
  store i8 1, ptr %9, align 1
  %106 = load i8, ptr %9, align 1
  %107 = trunc i8 %106 to i1
  %108 = zext i1 %107 to i8
  store i8 %108, ptr %9, align 1
  br label %109

109:                                              ; preds = %105
  br label %110

110:                                              ; preds = %109
  store i32 -1, ptr %7, align 4
  br label %218

111:                                              ; No predecessors!
  br label %112

112:                                              ; preds = %111
  br label %113

113:                                              ; preds = %112, %95
  %114 = load i64, ptr %3, align 8
  %115 = call i32 @H5I_get_type(i64 noundef %114)
  %116 = icmp eq i32 11, %115
  br i1 %116, label %117, label %157

117:                                              ; preds = %113
  %118 = load i64, ptr %3, align 8
  %119 = call ptr @H5I_object(i64 noundef %118)
  store ptr %119, ptr %5, align 8
  %120 = icmp eq ptr null, %119
  br i1 %120, label %121, label %136

121:                                              ; preds = %117
  br label %122

122:                                              ; preds = %121
  br label %123

123:                                              ; preds = %122
  br label %124

124:                                              ; preds = %123
  %125 = load i64, ptr @H5E_ARGS_g, align 8
  %126 = load i64, ptr @H5E_BADTYPE_g, align 8
  %127 = call i32 (ptr, ptr, i32, i64, i64, ptr, ...) @H5E_printf_stack(ptr noundef @.str, ptr noundef @__func__.H5Pget_nprops, i32 noundef 961, i64 noundef %125, i64 noundef %126, ptr noundef @.str.18)
  br label %128

128:                                              ; preds = %124
  store i8 1, ptr %9, align 1
  %129 = load i8, ptr %9, align 1
  %130 = trunc i8 %129 to i1
  %131 = zext i1 %130 to i8
  store i8 %131, ptr %9, align 1
  br label %132

132:                                              ; preds = %128
  br label %133

133:                                              ; preds = %132
  store i32 -1, ptr %7, align 4
  br label %218

134:                                              ; No predecessors!
  br label %135

135:                                              ; preds = %134
  br label %136

136:                                              ; preds = %135, %117
  %137 = load ptr, ptr %5, align 8
  %138 = load ptr, ptr %4, align 8
  %139 = call i32 @H5P__get_nprops_plist(ptr noundef %137, ptr noundef %138)
  %140 = icmp slt i32 %139, 0
  br i1 %140, label %141, label %156

141:                                              ; preds = %136
  br label %142

142:                                              ; preds = %141
  br label %143

143:                                              ; preds = %142
  br label %144

144:                                              ; preds = %143
  %145 = load i64, ptr @H5E_PLIST_g, align 8
  %146 = load i64, ptr @H5E_CANTREGISTER_g, align 8
  %147 = call i32 (ptr, ptr, i32, i64, i64, ptr, ...) @H5E_printf_stack(ptr noundef @.str, ptr noundef @__func__.H5Pget_nprops, i32 noundef 963, i64 noundef %145, i64 noundef %146, ptr noundef @.str.35)
  br label %148

148:                                              ; preds = %144
  store i8 1, ptr %9, align 1
  %149 = load i8, ptr %9, align 1
  %150 = trunc i8 %149 to i1
  %151 = zext i1 %150 to i8
  store i8 %151, ptr %9, align 1
  br label %152

152:                                              ; preds = %148
  br label %153

153:                                              ; preds = %152
  store i32 -1, ptr %7, align 4
  br label %218

154:                                              ; No predecessors!
  br label %155

155:                                              ; preds = %154
  br label %156

156:                                              ; preds = %155, %136
  br label %217

157:                                              ; preds = %113
  %158 = load i64, ptr %3, align 8
  %159 = call i32 @H5I_get_type(i64 noundef %158)
  %160 = icmp eq i32 10, %159
  br i1 %160, label %161, label %201

161:                                              ; preds = %157
  %162 = load i64, ptr %3, align 8
  %163 = call ptr @H5I_object(i64 noundef %162)
  store ptr %163, ptr %6, align 8
  %164 = icmp eq ptr null, %163
  br i1 %164, label %165, label %180

165:                                              ; preds = %161
  br label %166

166:                                              ; preds = %165
  br label %167

167:                                              ; preds = %166
  br label %168

168:                                              ; preds = %167
  %169 = load i64, ptr @H5E_ARGS_g, align 8
  %170 = load i64, ptr @H5E_BADTYPE_g, align 8
  %171 = call i32 (ptr, ptr, i32, i64, i64, ptr, ...) @H5E_printf_stack(ptr noundef @.str, ptr noundef @__func__.H5Pget_nprops, i32 noundef 967, i64 noundef %169, i64 noundef %170, ptr noundef @.str.25)
  br label %172

172:                                              ; preds = %168
  store i8 1, ptr %9, align 1
  %173 = load i8, ptr %9, align 1
  %174 = trunc i8 %173 to i1
  %175 = zext i1 %174 to i8
  store i8 %175, ptr %9, align 1
  br label %176

176:                                              ; preds = %172
  br label %177

177:                                              ; preds = %176
  store i32 -1, ptr %7, align 4
  br label %218

178:                                              ; No predecessors!
  br label %179

179:                                              ; preds = %178
  br label %180

180:                                              ; preds = %179, %161
  %181 = load ptr, ptr %6, align 8
  %182 = load ptr, ptr %4, align 8
  %183 = call i32 @H5P_get_nprops_pclass(ptr noundef %181, ptr noundef %182, i1 noundef zeroext false)
  %184 = icmp slt i32 %183, 0
  br i1 %184, label %185, label %200

185:                                              ; preds = %180
  br label %186

186:                                              ; preds = %185
  br label %187

187:                                              ; preds = %186
  br label %188

188:                                              ; preds = %187
  %189 = load i64, ptr @H5E_PLIST_g, align 8
  %190 = load i64, ptr @H5E_CANTREGISTER_g, align 8
  %191 = call i32 (ptr, ptr, i32, i64, i64, ptr, ...) @H5E_printf_stack(ptr noundef @.str, ptr noundef @__func__.H5Pget_nprops, i32 noundef 969, i64 noundef %189, i64 noundef %190, ptr noundef @.str.36)
  br label %192

192:                                              ; preds = %188
  store i8 1, ptr %9, align 1
  %193 = load i8, ptr %9, align 1
  %194 = trunc i8 %193 to i1
  %195 = zext i1 %194 to i8
  store i8 %195, ptr %9, align 1
  br label %196

196:                                              ; preds = %192
  br label %197

197:                                              ; preds = %196
  store i32 -1, ptr %7, align 4
  br label %218

198:                                              ; No predecessors!
  br label %199

199:                                              ; preds = %198
  br label %200

200:                                              ; preds = %199, %180
  br label %216

201:                                              ; preds = %157
  br label %202

202:                                              ; preds = %201
  br label %203

203:                                              ; preds = %202
  br label %204

204:                                              ; preds = %203
  %205 = load i64, ptr @H5E_ARGS_g, align 8
  %206 = load i64, ptr @H5E_BADTYPE_g, align 8
  %207 = call i32 (ptr, ptr, i32, i64, i64, ptr, ...) @H5E_printf_stack(ptr noundef @.str, ptr noundef @__func__.H5Pget_nprops, i32 noundef 972, i64 noundef %205, i64 noundef %206, ptr noundef @.str.23)
  br label %208

208:                                              ; preds = %204
  store i8 1, ptr %9, align 1
  %209 = load i8, ptr %9, align 1
  %210 = trunc i8 %209 to i1
  %211 = zext i1 %210 to i8
  store i8 %211, ptr %9, align 1
  br label %212

212:                                              ; preds = %208
  br label %213

213:                                              ; preds = %212
  store i32 -1, ptr %7, align 4
  br label %218

214:                                              ; No predecessors!
  br label %215

215:                                              ; preds = %214
  br label %216

216:                                              ; preds = %215, %200
  br label %217

217:                                              ; preds = %216, %156
  br label %218

218:                                              ; preds = %217, %213, %197, %177, %153, %133, %110, %92, %67, %43
  %219 = load i8, ptr %8, align 1
  %220 = trunc i8 %219 to i1
  %221 = xor i1 %220, true
  %222 = xor i1 %221, true
  %223 = zext i1 %222 to i32
  %224 = sext i32 %223 to i64
  %225 = icmp ne i64 %224, 0
  br i1 %225, label %226, label %228

226:                                              ; preds = %218
  %227 = call i32 @H5CX_pop(i1 noundef zeroext true)
  store i8 0, ptr %8, align 1
  br label %228

228:                                              ; preds = %226, %218
  %229 = load i8, ptr %9, align 1
  %230 = trunc i8 %229 to i1
  %231 = xor i1 %230, true
  %232 = xor i1 %231, true
  %233 = zext i1 %232 to i32
  %234 = sext i32 %233 to i64
  %235 = icmp ne i64 %234, 0
  br i1 %235, label %236, label %238

236:                                              ; preds = %228
  %237 = call i32 @H5E_dump_api_stack()
  br label %238

238:                                              ; preds = %236, %228
  %239 = load i32, ptr %7, align 4
  ret i32 %239
}