; Function Attrs: nounwind uwtable
define range(i32 -1, 1) i32 @H5Pget_nprops(i64 noundef %0, ptr noundef %1) local_unnamed_addr #0 {
  %3 = load i8, ptr @H5_libinit_g, align 1
  %4 = trunc i8 %3 to i1
  %5 = load i8, ptr @H5_libterm_g, align 1
  %6 = trunc i8 %5 to i1
  %7 = select i1 %4, i1 true, i1 %6
  br i1 %7, label %15, label %8

8:                                                ; preds = %2
  %9 = tail call i32 @H5_init_library() #2
  %10 = icmp slt i32 %9, 0
  br i1 %10, label %11, label %15

11:                                               ; preds = %8
  %12 = load i64, ptr @H5E_FUNC_g, align 8
  %13 = load i64, ptr @H5E_CANTINIT_g, align 8
  %14 = tail call i32 (ptr, ptr, i32, i64, i64, ptr, ...) @H5E_printf_stack(ptr noundef nonnull @.str, ptr noundef nonnull @__func__.H5Pget_nprops, i32 noundef 951, i64 noundef %12, i64 noundef %13, ptr noundef nonnull @.str.1) #2
  br label %.thread36

15:                                               ; preds = %8, %2
  %16 = tail call i32 @H5CX_push() #2
  %17 = icmp slt i32 %16, 0
  br i1 %17, label %18, label %22

18:                                               ; preds = %15
  %19 = load i64, ptr @H5E_FUNC_g, align 8
  %20 = load i64, ptr @H5E_CANTSET_g, align 8
  %21 = tail call i32 (ptr, ptr, i32, i64, i64, ptr, ...) @H5E_printf_stack(ptr noundef nonnull @.str, ptr noundef nonnull @__func__.H5Pget_nprops, i32 noundef 951, i64 noundef %19, i64 noundef %20, ptr noundef nonnull @.str.2) #2
  br label %.thread36

22:                                               ; preds = %15
  %23 = tail call i32 @H5E_clear_stack() #2
  %24 = tail call i32 @H5I_get_type(i64 noundef %0) #2
  %.not = icmp eq i32 %24, 11
  br i1 %.not, label %31, label %25

25:                                               ; preds = %22
  %26 = tail call i32 @H5I_get_type(i64 noundef %0) #2
  %.not27 = icmp eq i32 %26, 10
  br i1 %.not27, label %31, label %27

27:                                               ; preds = %25
  %28 = load i64, ptr @H5E_ARGS_g, align 8
  %29 = load i64, ptr @H5E_BADTYPE_g, align 8
  %30 = tail call i32 (ptr, ptr, i32, i64, i64, ptr, ...) @H5E_printf_stack(ptr noundef nonnull @.str, ptr noundef nonnull @__func__.H5Pget_nprops, i32 noundef 955, i64 noundef %28, i64 noundef %29, ptr noundef nonnull @.str.23) #2
  br label %.thread42

31:                                               ; preds = %25, %22
  %32 = icmp eq ptr %1, null
  br i1 %32, label %33, label %37

33:                                               ; preds = %31
  %34 = load i64, ptr @H5E_ARGS_g, align 8
  %35 = load i64, ptr @H5E_BADVALUE_g, align 8
  %36 = tail call i32 (ptr, ptr, i32, i64, i64, ptr, ...) @H5E_printf_stack(ptr noundef nonnull @.str, ptr noundef nonnull @__func__.H5Pget_nprops, i32 noundef 957, i64 noundef %34, i64 noundef %35, ptr noundef nonnull @.str.34) #2
  br label %.thread42

37:                                               ; preds = %31
  %38 = tail call i32 @H5I_get_type(i64 noundef %0) #2
  %39 = icmp eq i32 %38, 11
  br i1 %39, label %40, label %54

40:                                               ; preds = %37
  %41 = tail call ptr @H5I_object(i64 noundef %0) #2
  %42 = icmp eq ptr %41, null
  br i1 %42, label %43, label %47

43:                                               ; preds = %40
  %44 = load i64, ptr @H5E_ARGS_g, align 8
  %45 = load i64, ptr @H5E_BADTYPE_g, align 8
  %46 = tail call i32 (ptr, ptr, i32, i64, i64, ptr, ...) @H5E_printf_stack(ptr noundef nonnull @.str, ptr noundef nonnull @__func__.H5Pget_nprops, i32 noundef 961, i64 noundef %44, i64 noundef %45, ptr noundef nonnull @.str.18) #2
  br label %.thread42

47:                                               ; preds = %40
  %48 = tail call i32 @H5P__get_nprops_plist(ptr noundef nonnull %41, ptr noundef nonnull %1) #2
  %49 = icmp slt i32 %48, 0
  br i1 %49, label %50, label %76

50:                                               ; preds = %47
  %51 = load i64, ptr @H5E_PLIST_g, align 8
  %52 = load i64, ptr @H5E_CANTREGISTER_g, align 8
  %53 = tail call i32 (ptr, ptr, i32, i64, i64, ptr, ...) @H5E_printf_stack(ptr noundef nonnull @.str, ptr noundef nonnull @__func__.H5Pget_nprops, i32 noundef 963, i64 noundef %51, i64 noundef %52, ptr noundef nonnull @.str.35) #2
  br label %.thread42

54:                                               ; preds = %37
  %55 = tail call i32 @H5I_get_type(i64 noundef %0) #2
  %56 = icmp eq i32 %55, 10
  br i1 %56, label %57, label %71

57:                                               ; preds = %54
  %58 = tail call ptr @H5I_object(i64 noundef %0) #2
  %59 = icmp eq ptr %58, null
  br i1 %59, label %60, label %64

60:                                               ; preds = %57
  %61 = load i64, ptr @H5E_ARGS_g, align 8
  %62 = load i64, ptr @H5E_BADTYPE_g, align 8
  %63 = tail call i32 (ptr, ptr, i32, i64, i64, ptr, ...) @H5E_printf_stack(ptr noundef nonnull @.str, ptr noundef nonnull @__func__.H5Pget_nprops, i32 noundef 967, i64 noundef %61, i64 noundef %62, ptr noundef nonnull @.str.25) #2
  br label %.thread42

64:                                               ; preds = %57
  %65 = tail call i32 @H5P_get_nprops_pclass(ptr noundef nonnull %58, ptr noundef nonnull %1, i1 noundef zeroext false) #2
  %66 = icmp slt i32 %65, 0
  br i1 %66, label %67, label %76

67:                                               ; preds = %64
  %68 = load i64, ptr @H5E_PLIST_g, align 8
  %69 = load i64, ptr @H5E_CANTREGISTER_g, align 8
  %70 = tail call i32 (ptr, ptr, i32, i64, i64, ptr, ...) @H5E_printf_stack(ptr noundef nonnull @.str, ptr noundef nonnull @__func__.H5Pget_nprops, i32 noundef 969, i64 noundef %68, i64 noundef %69, ptr noundef nonnull @.str.36) #2
  br label %.thread42

71:                                               ; preds = %54
  %72 = load i64, ptr @H5E_ARGS_g, align 8
  %73 = load i64, ptr @H5E_BADTYPE_g, align 8
  %74 = tail call i32 (ptr, ptr, i32, i64, i64, ptr, ...) @H5E_printf_stack(ptr noundef nonnull @.str, ptr noundef nonnull @__func__.H5Pget_nprops, i32 noundef 972, i64 noundef %72, i64 noundef %73, ptr noundef nonnull @.str.23) #2
  br label %.thread42

.thread42:                                        ; preds = %71, %67, %60, %50, %43, %33, %27
  %75 = tail call i32 @H5CX_pop(i1 noundef zeroext true) #2
  br label %.thread36

76:                                               ; preds = %64, %47
  %77 = tail call i32 @H5CX_pop(i1 noundef zeroext true) #2
  br label %79

.thread36:                                        ; preds = %18, %11, %.thread42
  %78 = tail call i32 @H5E_dump_api_stack() #2
  br label %79

79:                                               ; preds = %76, %.thread36
  %.0233139 = phi i32 [ -1, %.thread36 ], [ 0, %76 ]
  ret i32 %.0233139
}